target datalayout = "e-m:e-p270:32:32-p271:32:32-p272:64:64-i64:64-i128:128-f80:128-n8:16:32:64-S128"
target triple = "x86_64-unknown-linux-gnu"

%"class.sat::literal" = type { i32 }
%"struct.sat::npn3_finder::ternary" = type { %"class.sat::literal", %"class.sat::literal", %"class.sat::literal", ptr }

; Function Attrs: mustprogress nounwind uwtable
define linkonce_odr hidden void @_ZSt4swapIN3sat7literalEENSt9enable_ifIXsr6__and_ISt6__not_ISt15__is_tuple_likeIT_EESt21is_move_constructibleIS5_ESt18is_move_assignableIS5_EEE5valueEvE4typeERS5_SE_(ptr noundef nonnull align 4 dereferenceable(4) %__a, ptr noundef nonnull align 4 dereferenceable(4) %__b) #4 comdat {
entry:
  %__a.addr = alloca ptr, align 8
  %__b.addr = alloca ptr, align 8
  %__tmp = alloca %"class.sat::literal", align 4
  store ptr %__a, ptr %__a.addr, align 8
  store ptr %__b, ptr %__b.addr, align 8
  %0 = load ptr, ptr %__a.addr, align 8
  call void @llvm.memcpy.p0.p0.i64(ptr align 4 %__tmp, ptr align 4 %0, i64 4, i1 false)
  %1 = load ptr, ptr %__b.addr, align 8
  %2 = load ptr, ptr %__a.addr, align 8
  call void @llvm.memcpy.p0.p0.i64(ptr align 4 %2, ptr align 4 %1, i64 4, i1 false)
  %3 = load ptr, ptr %__b.addr, align 8
  call void @llvm.memcpy.p0.p0.i64(ptr align 4 %3, ptr align 4 %__tmp, i64 4, i1 false)
  ret void
}

; Function Attrs: mustprogress nounwind uwtable
define linkonce_odr hidden noundef i32 @_ZNK3sat7literal5indexEv(ptr noundef nonnull align 4 dereferenceable(4) %this) #4 comdat align 2 {
entry:
  %this.addr = alloca ptr, align 8
  store ptr %this, ptr %this.addr, align 8
  %this1 = load ptr, ptr %this.addr, align 8
  %m_val = getelementptr inbounds %"class.sat::literal", ptr %this1, i32 0, i32 0
  %0 = load i32, ptr %m_val, align 4
  ret i32 %0
}

; Function Attrs: mustprogress uwtable
define hidden void @_ZN3sat11npn3_finder7ternaryC2ENS_7literalES2_S2_PNS_6clauseE(ptr noundef nonnull align 8 dereferenceable(24) %this, i32 %_x.coerce, i32 %_y.coerce, i32 %_z.coerce, ptr noundef %c) unnamed_addr #5 align 2 {
entry:
  %_x = alloca %"class.sat::literal", align 4
  %_y = alloca %"class.sat::literal", align 4
  %_z = alloca %"class.sat::literal", align 4
  %this.addr = alloca ptr, align 8
  %c.addr = alloca ptr, align 8
  %coerce.dive = getelementptr inbounds %"class.sat::literal", ptr %_x, i32 0, i32 0
  store i32 %_x.coerce, ptr %coerce.dive, align 4
  %coerce.dive1 = getelementptr inbounds %"class.sat::literal", ptr %_y, i32 0, i32 0
  store i32 %_y.coerce, ptr %coerce.dive1, align 4
  %coerce.dive2 = getelementptr inbounds %"class.sat::literal", ptr %_z, i32 0, i32 0
  store i32 %_z.coerce, ptr %coerce.dive2, align 4
  store ptr %this, ptr %this.addr, align 8
  store ptr %c, ptr %c.addr, align 8
  %this3 = load ptr, ptr %this.addr, align 8
  %x = getelementptr inbounds %"struct.sat::npn3_finder::ternary", ptr %this3, i32 0, i32 0
  call void @llvm.memcpy.p0.p0.i64(ptr align 8 %x, ptr align 4 %_x, i64 4, i1 false)
  %y = getelementptr inbounds %"struct.sat::npn3_finder::ternary", ptr %this3, i32 0, i32 1
  call void @llvm.memcpy.p0.p0.i64(ptr align 4 %y, ptr align 4 %_y, i64 4, i1 false)
  %z = getelementptr inbounds %"struct.sat::npn3_finder::ternary", ptr %this3, i32 0, i32 2
  call void @llvm.memcpy.p0.p0.i64(ptr align 8 %z, ptr align 4 %_z, i64 4, i1 false)
  %orig = getelementptr inbounds %"struct.sat::npn3_finder::ternary", ptr %this3, i32 0, i32 3
  %0 = load ptr, ptr %c.addr, align 8
  store ptr %0, ptr %orig, align 8
  %x4 = getelementptr inbounds %"struct.sat::npn3_finder::ternary", ptr %this3, i32 0, i32 0
  %call = call noundef i32 @_ZNK3sat7literal5indexEv(ptr noundef nonnull align 4 dereferenceable(4) %x4)
  %y5 = getelementptr inbounds %"struct.sat::npn3_finder::ternary", ptr %this3, i32 0, i32 1
  %call6 = call noundef i32 @_ZNK3sat7literal5indexEv(ptr noundef nonnull align 4 dereferenceable(4) %y5)
  %cmp = icmp ugt i32 %call, %call6
  br i1 %cmp, label %if.then, label %if.end

if.then:                                          ; preds = %entry
  %x7 = getelementptr inbounds %"struct.sat::npn3_finder::ternary", ptr %this3, i32 0, i32 0
  %y8 = getelementptr inbounds %"struct.sat::npn3_finder::ternary", ptr %this3, i32 0, i32 1
  call void @_ZSt4swapIN3sat7literalEENSt9enable_ifIXsr6__and_ISt6__not_ISt15__is_tuple_likeIT_EESt21is_move_constructibleIS5_ESt18is_move_assignableIS5_EEE5valueEvE4typeERS5_SE_(ptr noundef nonnull align 4 dereferenceable(4) %x7, ptr noundef nonnull align 4 dereferenceable(4) %y8) #3
  br label %if.end

if.end:                                           ; preds = %if.then, %entry
  %y9 = getelementptr inbounds %"struct.sat::npn3_finder::ternary", ptr %this3, i32 0, i32 1
  %call10 = call noundef i32 @_ZNK3sat7literal5indexEv(ptr noundef nonnull align 4 dereferenceable(4) %y9)
  %z11 = getelementptr inbounds %"struct.sat::npn3_finder::ternary", ptr %this3, i32 0, i32 2
  %call12 = call noundef i32 @_ZNK3sat7literal5indexEv(ptr noundef nonnull align 4 dereferenceable(4) %z11)
  %cmp13 = icmp ugt i32 %call10, %call12
  br i1 %cmp13, label %if.then14, label %if.end17

if.then14:                                        ; preds = %if.end
  %y15 = getelementptr inbounds %"struct.sat::npn3_finder::ternary", ptr %this3, i32 0, i32 1
  %z16 = getelementptr inbounds %"struct.sat::npn3_finder::ternary", ptr %this3, i32 0, i32 2
  call void @_ZSt4swapIN3sat7literalEENSt9enable_ifIXsr6__and_ISt6__not_ISt15__is_tuple_likeIT_EESt21is_move_constructibleIS5_ESt18is_move_assignableIS5_EEE5valueEvE4typeERS5_SE_(ptr noundef nonnull align 4 dereferenceable(4) %y15, ptr noundef nonnull align 4 dereferenceable(4) %z16) #3
  br label %if.end17

if.end17:                                         ; preds = %if.then14, %if.end
  %x18 = getelementptr inbounds %"struct.sat::npn3_finder::ternary", ptr %this3, i32 0, i32 0
  %call19 = call noundef i32 @_ZNK3sat7literal5indexEv(ptr noundef nonnull align 4 dereferenceable(4) %x18)
  %y20 = getelementptr inbounds %"struct.sat::npn3_finder::ternary", ptr %this3, i32 0, i32 1
  %call21 = call noundef i32 @_ZNK3sat7literal5indexEv(ptr noundef nonnull align 4 dereferenceable(4) %y20)
  %cmp22 = icmp ugt i32 %call19, %call21
  br i1 %cmp22, label %if.then23, label %if.end26

if.then23:                                        ; preds = %if.end17
  %x24 = getelementptr inbounds %"struct.sat::npn3_finder::ternary", ptr %this3, i32 0, i32 0
  %y25 = getelementptr inbounds %"struct.sat::npn3_finder::ternary", ptr %this3, i32 0, i32 1
  call void @_ZSt4swapIN3sat7literalEENSt9enable_ifIXsr6__and_ISt6__not_ISt15__is_tuple_likeIT_EESt21is_move_constructibleIS5_ESt18is_move_assignableIS5_EEE5valueEvE4typeERS5_SE_(ptr noundef nonnull align 4 dereferenceable(4) %x24, ptr noundef nonnull align 4 dereferenceable(4) %y25) #3
  br label %if.end26

if.end26:                                         ; preds = %if.then23, %if.end17
  ret void
}