; Function Attrs: mustprogress nofree norecurse nosync nounwind willreturn memory(argmem: write) uwtable
define hidden void @_ZN3sat11npn3_finder7ternaryC2ENS_7literalES2_S2_PNS_6clauseE(ptr nocapture noundef nonnull writeonly align 8 dereferenceable(24) %this, i32 %_x.coerce, i32 %_y.coerce, i32 %_z.coerce, ptr noundef %c) unnamed_addr #3 align 2 {
entry:
  store i32 %_x.coerce, ptr %this, align 8
  %y = getelementptr inbounds i8, ptr %this, i64 4
  store i32 %_y.coerce, ptr %y, align 4
  %z = getelementptr inbounds i8, ptr %this, i64 8
  store i32 %_z.coerce, ptr %z, align 8
  %orig = getelementptr inbounds i8, ptr %this, i64 16
  store ptr %c, ptr %orig, align 8
  %cmp = icmp ugt i32 %_x.coerce, %_y.coerce
  br i1 %cmp, label %if.then, label %if.end

if.then:                                          ; preds = %entry
  store i32 %_y.coerce, ptr %this, align 8
  store i32 %_x.coerce, ptr %y, align 4
  br label %if.end

if.end:                                           ; preds = %if.then, %entry
  %0 = phi i32 [ %_y.coerce, %if.then ], [ %_x.coerce, %entry ]
  %1 = phi i32 [ %_x.coerce, %if.then ], [ %_y.coerce, %entry ]
  %cmp13 = icmp ugt i32 %1, %_z.coerce
  br i1 %cmp13, label %if.then14, label %if.end17

if.then14:                                        ; preds = %if.end
  store i32 %_z.coerce, ptr %y, align 4
  store i32 %1, ptr %z, align 8
  br label %if.end17

if.end17:                                         ; preds = %if.then14, %if.end
  %2 = phi i32 [ %_z.coerce, %if.then14 ], [ %1, %if.end ]
  %cmp22 = icmp ugt i32 %0, %2
  br i1 %cmp22, label %if.then23, label %if.end26

if.then23:                                        ; preds = %if.end17
  store i32 %2, ptr %this, align 8
  store i32 %0, ptr %y, align 4
  br label %if.end26

if.end26:                                         ; preds = %if.then23, %if.end17
  ret void
}